
NTI_PASSWORD_ASSIGNMENT.elf:     file format elf32-avr

Sections:
Idx Name          Size      VMA       LMA       File off  Algn
  0 .text         00000964  00000000  00000000  00000074  2**1
                  CONTENTS, ALLOC, LOAD, READONLY, CODE
  1 .data         00000066  00800060  00000964  000009d8  2**0
                  CONTENTS, ALLOC, LOAD, DATA
  2 .comment      00000030  00000000  00000000  00000a3e  2**0
                  CONTENTS, READONLY
  3 .note.gnu.avr.deviceinfo 0000003c  00000000  00000000  00000a70  2**2
                  CONTENTS, READONLY
  4 .debug_aranges 000001b8  00000000  00000000  00000aac  2**0
                  CONTENTS, READONLY, DEBUGGING
  5 .debug_info   00002406  00000000  00000000  00000c64  2**0
                  CONTENTS, READONLY, DEBUGGING
  6 .debug_abbrev 00000e6e  00000000  00000000  0000306a  2**0
                  CONTENTS, READONLY, DEBUGGING
  7 .debug_line   000011f1  00000000  00000000  00003ed8  2**0
                  CONTENTS, READONLY, DEBUGGING
  8 .debug_frame  00000370  00000000  00000000  000050cc  2**2
                  CONTENTS, READONLY, DEBUGGING
  9 .debug_str    000008b4  00000000  00000000  0000543c  2**0
                  CONTENTS, READONLY, DEBUGGING
 10 .debug_loc    00000ea2  00000000  00000000  00005cf0  2**0
                  CONTENTS, READONLY, DEBUGGING
 11 .debug_ranges 00000178  00000000  00000000  00006b92  2**0
                  CONTENTS, READONLY, DEBUGGING

Disassembly of section .text:

00000000 <__vectors>:
   0:	0c 94 2a 00 	jmp	0x54	; 0x54 <__ctors_end>
   4:	0c 94 3f 00 	jmp	0x7e	; 0x7e <__bad_interrupt>
   8:	0c 94 3f 00 	jmp	0x7e	; 0x7e <__bad_interrupt>
   c:	0c 94 3f 00 	jmp	0x7e	; 0x7e <__bad_interrupt>
  10:	0c 94 3f 00 	jmp	0x7e	; 0x7e <__bad_interrupt>
  14:	0c 94 3f 00 	jmp	0x7e	; 0x7e <__bad_interrupt>
  18:	0c 94 3f 00 	jmp	0x7e	; 0x7e <__bad_interrupt>
  1c:	0c 94 3f 00 	jmp	0x7e	; 0x7e <__bad_interrupt>
  20:	0c 94 3f 00 	jmp	0x7e	; 0x7e <__bad_interrupt>
  24:	0c 94 3f 00 	jmp	0x7e	; 0x7e <__bad_interrupt>
  28:	0c 94 3f 00 	jmp	0x7e	; 0x7e <__bad_interrupt>
  2c:	0c 94 3f 00 	jmp	0x7e	; 0x7e <__bad_interrupt>
  30:	0c 94 3f 00 	jmp	0x7e	; 0x7e <__bad_interrupt>
  34:	0c 94 3f 00 	jmp	0x7e	; 0x7e <__bad_interrupt>
  38:	0c 94 3f 00 	jmp	0x7e	; 0x7e <__bad_interrupt>
  3c:	0c 94 3f 00 	jmp	0x7e	; 0x7e <__bad_interrupt>
  40:	0c 94 3f 00 	jmp	0x7e	; 0x7e <__bad_interrupt>
  44:	0c 94 3f 00 	jmp	0x7e	; 0x7e <__bad_interrupt>
  48:	0c 94 3f 00 	jmp	0x7e	; 0x7e <__bad_interrupt>
  4c:	0c 94 3f 00 	jmp	0x7e	; 0x7e <__bad_interrupt>
  50:	0c 94 3f 00 	jmp	0x7e	; 0x7e <__bad_interrupt>

00000054 <__ctors_end>:
  54:	11 24       	eor	r1, r1
  56:	1f be       	out	0x3f, r1	; 63
  58:	cf e5       	ldi	r28, 0x5F	; 95
  5a:	d8 e0       	ldi	r29, 0x08	; 8
  5c:	de bf       	out	0x3e, r29	; 62
  5e:	cd bf       	out	0x3d, r28	; 61

00000060 <__do_copy_data>:
  60:	10 e0       	ldi	r17, 0x00	; 0
  62:	a0 e6       	ldi	r26, 0x60	; 96
  64:	b0 e0       	ldi	r27, 0x00	; 0
  66:	e4 e6       	ldi	r30, 0x64	; 100
  68:	f9 e0       	ldi	r31, 0x09	; 9
  6a:	02 c0       	rjmp	.+4      	; 0x70 <__do_copy_data+0x10>
  6c:	05 90       	lpm	r0, Z+
  6e:	0d 92       	st	X+, r0
  70:	a6 3c       	cpi	r26, 0xC6	; 198
  72:	b1 07       	cpc	r27, r17
  74:	d9 f7       	brne	.-10     	; 0x6c <__do_copy_data+0xc>
  76:	0e 94 41 00 	call	0x82	; 0x82 <main>
  7a:	0c 94 b0 04 	jmp	0x960	; 0x960 <_exit>

0000007e <__bad_interrupt>:
  7e:	0c 94 00 00 	jmp	0	; 0x0 <__vectors>

00000082 <main>:
#include "Password.h"
#include "led.h"
#include "lcd.h"

int main(void)
 {
  82:	cf 93       	push	r28
  84:	df 93       	push	r29
  86:	cd b7       	in	r28, 0x3d	; 61
  88:	de b7       	in	r29, 0x3e	; 62
  8a:	2e 97       	sbiw	r28, 0x0e	; 14
  8c:	0f b6       	in	r0, 0x3f	; 63
  8e:	f8 94       	cli
  90:	de bf       	out	0x3e, r29	; 62
  92:	0f be       	out	0x3f, r0	; 63
  94:	cd bf       	out	0x3d, r28	; 61
	 /*a line to reset the password*/
	// eeprom_write(PASSWORD_FLAG_ADDR, 0x00);
	lcd_init();
  96:	0e 94 e4 02 	call	0x5c8	; 0x5c8 <lcd_init>
	keypad_init();
  9a:	0e 94 1a 02 	call	0x434	; 0x434 <keypad_init>
	led_init();
  9e:	0e 94 22 03 	call	0x644	; 0x644 <led_init>

	u8 correct[] = "Correct";
  a2:	88 e0       	ldi	r24, 0x08	; 8
  a4:	e8 eb       	ldi	r30, 0xB8	; 184
  a6:	f0 e0       	ldi	r31, 0x00	; 0
  a8:	de 01       	movw	r26, r28
  aa:	11 96       	adiw	r26, 0x01	; 1
  ac:	01 90       	ld	r0, Z+
  ae:	0d 92       	st	X+, r0
  b0:	8a 95       	dec	r24
  b2:	e1 f7       	brne	.-8      	; 0xac <main+0x2a>
	u8 notcorrect[] = "Wrong";
  b4:	86 e0       	ldi	r24, 0x06	; 6
  b6:	e0 ec       	ldi	r30, 0xC0	; 192
  b8:	f0 e0       	ldi	r31, 0x00	; 0
  ba:	de 01       	movw	r26, r28
  bc:	19 96       	adiw	r26, 0x09	; 9
  be:	01 90       	ld	r0, Z+
  c0:	0d 92       	st	X+, r0
  c2:	8a 95       	dec	r24
  c4:	e1 f7       	brne	.-8      	; 0xbe <main+0x3c>

	if (!is_password_set()) 
  c6:	0e 94 6b 01 	call	0x2d6	; 0x2d6 <is_password_set>
  ca:	81 11       	cpse	r24, r1
  cc:	43 c0       	rjmp	.+134    	; 0x154 <main+0xd2>
  ce:	10 e0       	ldi	r17, 0x00	; 0
  d0:	3e c0       	rjmp	.+124    	; 0x14e <main+0xcc>
	{
		bool matched = false;
		while (!matched)
		 {
			CLEAR_DISPLAY;
  d2:	81 e0       	ldi	r24, 0x01	; 1
  d4:	0e 94 b6 02 	call	0x56c	; 0x56c <lcd_sendCmd>
			lcd_displaystr("Set Password:");
  d8:	80 e7       	ldi	r24, 0x70	; 112
  da:	90 e0       	ldi	r25, 0x00	; 0
  dc:	0e 94 c8 02 	call	0x590	; 0x590 <lcd_displaystr>
			lcd_gotoRowColumn(1, 0);
  e0:	60 e0       	ldi	r22, 0x00	; 0
  e2:	81 e0       	ldi	r24, 0x01	; 1
  e4:	0e 94 d5 02 	call	0x5aa	; 0x5aa <lcd_gotoRowColumn>
			setpassword();
  e8:	0e 94 05 01 	call	0x20a	; 0x20a <setpassword>

			CLEAR_DISPLAY;
  ec:	81 e0       	ldi	r24, 0x01	; 1
  ee:	0e 94 b6 02 	call	0x56c	; 0x56c <lcd_sendCmd>
			lcd_displaystr("Confirm Password:");
  f2:	8e e7       	ldi	r24, 0x7E	; 126
  f4:	90 e0       	ldi	r25, 0x00	; 0
  f6:	0e 94 c8 02 	call	0x590	; 0x590 <lcd_displaystr>
			lcd_gotoRowColumn(1, 0);
  fa:	60 e0       	ldi	r22, 0x00	; 0
  fc:	81 e0       	ldi	r24, 0x01	; 1
  fe:	0e 94 d5 02 	call	0x5aa	; 0x5aa <lcd_gotoRowColumn>
			matched = checkpassword();  
 102:	0e 94 3b 01 	call	0x276	; 0x276 <checkpassword>
 106:	18 2f       	mov	r17, r24

			CLEAR_DISPLAY;
 108:	81 e0       	ldi	r24, 0x01	; 1
 10a:	0e 94 b6 02 	call	0x56c	; 0x56c <lcd_sendCmd>
			if (matched)
 10e:	11 23       	and	r17, r17
 110:	41 f0       	breq	.+16     	; 0x122 <main+0xa0>
			
			 {
				lcd_displaystr("Password Saved");
 112:	80 e9       	ldi	r24, 0x90	; 144
 114:	90 e0       	ldi	r25, 0x00	; 0
 116:	0e 94 c8 02 	call	0x590	; 0x590 <lcd_displaystr>
				led_on(LED2);
 11a:	81 e0       	ldi	r24, 0x01	; 1
 11c:	0e 94 2d 03 	call	0x65a	; 0x65a <led_on>
 120:	07 c0       	rjmp	.+14     	; 0x130 <main+0xae>
			 } 
			 
			else 
			
			{
				lcd_displaystr("Mismatch");
 122:	8f e9       	ldi	r24, 0x9F	; 159
 124:	90 e0       	ldi	r25, 0x00	; 0
 126:	0e 94 c8 02 	call	0x590	; 0x590 <lcd_displaystr>
				led_on(LED1);
 12a:	80 e0       	ldi	r24, 0x00	; 0
 12c:	0e 94 2d 03 	call	0x65a	; 0x65a <led_on>
	#else
		//round up by default
		__ticks_dc = (uint32_t)(ceil(fabs(__tmp)));
	#endif

	__builtin_avr_delay_cycles(__ticks_dc);
 130:	2f ef       	ldi	r18, 0xFF	; 255
 132:	83 ed       	ldi	r24, 0xD3	; 211
 134:	90 e3       	ldi	r25, 0x30	; 48
 136:	21 50       	subi	r18, 0x01	; 1
 138:	80 40       	sbci	r24, 0x00	; 0
 13a:	90 40       	sbci	r25, 0x00	; 0
 13c:	e1 f7       	brne	.-8      	; 0x136 <main+0xb4>
 13e:	00 c0       	rjmp	.+0      	; 0x140 <main+0xbe>
 140:	00 00       	nop
		    }
			
			_delay_ms(1000);
			led_off(LED1);
 142:	80 e0       	ldi	r24, 0x00	; 0
 144:	0e 94 3e 03 	call	0x67c	; 0x67c <led_off>
			led_off(LED2);
 148:	81 e0       	ldi	r24, 0x01	; 1
 14a:	0e 94 3e 03 	call	0x67c	; 0x67c <led_off>
	u8 notcorrect[] = "Wrong";

	if (!is_password_set()) 
	{
		bool matched = false;
		while (!matched)
 14e:	11 23       	and	r17, r17
 150:	09 f4       	brne	.+2      	; 0x154 <main+0xd2>
 152:	bf cf       	rjmp	.-130    	; 0xd2 <main+0x50>
 154:	10 e0       	ldi	r17, 0x00	; 0
 156:	31 c0       	rjmp	.+98     	; 0x1ba <main+0x138>


	bool check = false;
	while (!check)
	 {
		CLEAR_DISPLAY;
 158:	81 e0       	ldi	r24, 0x01	; 1
 15a:	0e 94 b6 02 	call	0x56c	; 0x56c <lcd_sendCmd>
		lcd_displaystr("Enter Password:");
 15e:	88 ea       	ldi	r24, 0xA8	; 168
 160:	90 e0       	ldi	r25, 0x00	; 0
 162:	0e 94 c8 02 	call	0x590	; 0x590 <lcd_displaystr>
		lcd_gotoRowColumn(1, 0);
 166:	60 e0       	ldi	r22, 0x00	; 0
 168:	81 e0       	ldi	r24, 0x01	; 1
 16a:	0e 94 d5 02 	call	0x5aa	; 0x5aa <lcd_gotoRowColumn>
		check = checkpassword();
 16e:	0e 94 3b 01 	call	0x276	; 0x276 <checkpassword>
 172:	18 2f       	mov	r17, r24

		CLEAR_DISPLAY;
 174:	81 e0       	ldi	r24, 0x01	; 1
 176:	0e 94 b6 02 	call	0x56c	; 0x56c <lcd_sendCmd>
		if (check)
 17a:	11 23       	and	r17, r17
 17c:	41 f0       	breq	.+16     	; 0x18e <main+0x10c>
		{
			lcd_displaystr(correct);
 17e:	ce 01       	movw	r24, r28
 180:	01 96       	adiw	r24, 0x01	; 1
 182:	0e 94 c8 02 	call	0x590	; 0x590 <lcd_displaystr>
			led_on(LED2);
 186:	81 e0       	ldi	r24, 0x01	; 1
 188:	0e 94 2d 03 	call	0x65a	; 0x65a <led_on>
 18c:	07 c0       	rjmp	.+14     	; 0x19c <main+0x11a>
		}
		
		else 
		
		{
			lcd_displaystr(notcorrect);
 18e:	ce 01       	movw	r24, r28
 190:	09 96       	adiw	r24, 0x09	; 9
 192:	0e 94 c8 02 	call	0x590	; 0x590 <lcd_displaystr>
			led_on(LED1);
 196:	80 e0       	ldi	r24, 0x00	; 0
 198:	0e 94 2d 03 	call	0x65a	; 0x65a <led_on>
 19c:	2f ef       	ldi	r18, 0xFF	; 255
 19e:	83 ed       	ldi	r24, 0xD3	; 211
 1a0:	90 e3       	ldi	r25, 0x30	; 48
 1a2:	21 50       	subi	r18, 0x01	; 1
 1a4:	80 40       	sbci	r24, 0x00	; 0
 1a6:	90 40       	sbci	r25, 0x00	; 0
 1a8:	e1 f7       	brne	.-8      	; 0x1a2 <main+0x120>
 1aa:	00 c0       	rjmp	.+0      	; 0x1ac <main+0x12a>
 1ac:	00 00       	nop
		}
		_delay_ms(1000);
		led_off(LED1);
 1ae:	80 e0       	ldi	r24, 0x00	; 0
 1b0:	0e 94 3e 03 	call	0x67c	; 0x67c <led_off>
		led_off(LED2);
 1b4:	81 e0       	ldi	r24, 0x01	; 1
 1b6:	0e 94 3e 03 	call	0x67c	; 0x67c <led_off>
		}
	}


	bool check = false;
	while (!check)
 1ba:	11 23       	and	r17, r17
 1bc:	69 f2       	breq	.-102    	; 0x158 <main+0xd6>
 1be:	ff cf       	rjmp	.-2      	; 0x1be <main+0x13c>

000001c0 <read_password_from_keypad>:
#include "keypad.h"
#include <util/delay.h>

/*Separate function to configure writing from the keypad*/
static void read_password_from_keypad(u8 *password_buffer)
 {
 1c0:	0f 93       	push	r16
 1c2:	1f 93       	push	r17
 1c4:	cf 93       	push	r28
 1c6:	8c 01       	movw	r16, r24
	for (u8 i = 0; i < MAX_PASSWORD_LEN; i++)
 1c8:	c0 e0       	ldi	r28, 0x00	; 0
 1ca:	19 c0       	rjmp	.+50     	; 0x1fe <read_password_from_keypad+0x3e>
	 {
		while (!keypad_keyIsPressed());
 1cc:	0e 94 45 02 	call	0x48a	; 0x48a <keypad_keyIsPressed>
 1d0:	88 23       	and	r24, r24
 1d2:	e1 f3       	breq	.-8      	; 0x1cc <read_password_from_keypad+0xc>
		password_buffer[i] = keypad_getKeyPressed();
 1d4:	0e 94 67 02 	call	0x4ce	; 0x4ce <keypad_getKeyPressed>
 1d8:	f8 01       	movw	r30, r16
 1da:	ec 0f       	add	r30, r28
 1dc:	f1 1d       	adc	r31, r1
 1de:	80 83       	st	Z, r24
		while (keypad_keyIsPressed());
 1e0:	0e 94 45 02 	call	0x48a	; 0x48a <keypad_keyIsPressed>
 1e4:	81 11       	cpse	r24, r1
 1e6:	fc cf       	rjmp	.-8      	; 0x1e0 <read_password_from_keypad+0x20>
 1e8:	8f e4       	ldi	r24, 0x4F	; 79
 1ea:	93 ec       	ldi	r25, 0xC3	; 195
 1ec:	01 97       	sbiw	r24, 0x01	; 1
 1ee:	f1 f7       	brne	.-4      	; 0x1ec <read_password_from_keypad+0x2c>
 1f0:	00 c0       	rjmp	.+0      	; 0x1f2 <read_password_from_keypad+0x32>
 1f2:	00 00       	nop
		_delay_ms(200);
		lcd_displayChr('*');
 1f4:	8a e2       	ldi	r24, 0x2A	; 42
 1f6:	90 e0       	ldi	r25, 0x00	; 0
 1f8:	0e 94 c5 02 	call	0x58a	; 0x58a <lcd_displayChr>
#include <util/delay.h>

/*Separate function to configure writing from the keypad*/
static void read_password_from_keypad(u8 *password_buffer)
 {
	for (u8 i = 0; i < MAX_PASSWORD_LEN; i++)
 1fc:	cf 5f       	subi	r28, 0xFF	; 255
 1fe:	c5 30       	cpi	r28, 0x05	; 5
 200:	28 f3       	brcs	.-54     	; 0x1cc <read_password_from_keypad+0xc>
		password_buffer[i] = keypad_getKeyPressed();
		while (keypad_keyIsPressed());
		_delay_ms(200);
		lcd_displayChr('*');
	}
}
 202:	cf 91       	pop	r28
 204:	1f 91       	pop	r17
 206:	0f 91       	pop	r16
 208:	08 95       	ret

0000020a <setpassword>:

/*The function to set password*/
void setpassword(void) 
{
 20a:	1f 93       	push	r17
 20c:	cf 93       	push	r28
 20e:	df 93       	push	r29
 210:	00 d0       	rcall	.+0      	; 0x212 <setpassword+0x8>
 212:	00 d0       	rcall	.+0      	; 0x214 <setpassword+0xa>
 214:	1f 92       	push	r1
 216:	cd b7       	in	r28, 0x3d	; 61
 218:	de b7       	in	r29, 0x3e	; 62
	u8 first[MAX_PASSWORD_LEN];
	read_password_from_keypad(first);
 21a:	ce 01       	movw	r24, r28
 21c:	01 96       	adiw	r24, 0x01	; 1
 21e:	0e 94 e0 00 	call	0x1c0	; 0x1c0 <read_password_from_keypad>

	// Save to EEPROM
	for (u8 i = 0; i < MAX_PASSWORD_LEN; i++)
 222:	10 e0       	ldi	r17, 0x00	; 0
 224:	12 c0       	rjmp	.+36     	; 0x24a <setpassword+0x40>
    {
		eeprom_write(PASSWORD_EEPROM_ADDR + i, first[i]);
 226:	81 2f       	mov	r24, r17
 228:	90 e0       	ldi	r25, 0x00	; 0
 22a:	e1 e0       	ldi	r30, 0x01	; 1
 22c:	f0 e0       	ldi	r31, 0x00	; 0
 22e:	ec 0f       	add	r30, r28
 230:	fd 1f       	adc	r31, r29
 232:	e8 0f       	add	r30, r24
 234:	f9 1f       	adc	r31, r25
 236:	60 81       	ld	r22, Z
 238:	0e 94 a4 04 	call	0x948	; 0x948 <eeprom_write>
 23c:	81 ee       	ldi	r24, 0xE1	; 225
 23e:	94 e0       	ldi	r25, 0x04	; 4
 240:	01 97       	sbiw	r24, 0x01	; 1
 242:	f1 f7       	brne	.-4      	; 0x240 <setpassword+0x36>
 244:	00 c0       	rjmp	.+0      	; 0x246 <setpassword+0x3c>
 246:	00 00       	nop
{
	u8 first[MAX_PASSWORD_LEN];
	read_password_from_keypad(first);

	// Save to EEPROM
	for (u8 i = 0; i < MAX_PASSWORD_LEN; i++)
 248:	1f 5f       	subi	r17, 0xFF	; 255
 24a:	15 30       	cpi	r17, 0x05	; 5
 24c:	60 f3       	brcs	.-40     	; 0x226 <setpassword+0x1c>
    {
		eeprom_write(PASSWORD_EEPROM_ADDR + i, first[i]);
		_delay_ms(5);
	}
	eeprom_write(PASSWORD_FLAG_ADDR, PASSWORD_SET);
 24e:	6a ea       	ldi	r22, 0xAA	; 170
 250:	8f ef       	ldi	r24, 0xFF	; 255
 252:	90 e0       	ldi	r25, 0x00	; 0
 254:	0e 94 a4 04 	call	0x948	; 0x948 <eeprom_write>
 258:	81 ee       	ldi	r24, 0xE1	; 225
 25a:	94 e0       	ldi	r25, 0x04	; 4
 25c:	01 97       	sbiw	r24, 0x01	; 1
 25e:	f1 f7       	brne	.-4      	; 0x25c <setpassword+0x52>
 260:	00 c0       	rjmp	.+0      	; 0x262 <setpassword+0x58>
 262:	00 00       	nop
	_delay_ms(5);
}
 264:	0f 90       	pop	r0
 266:	0f 90       	pop	r0
 268:	0f 90       	pop	r0
 26a:	0f 90       	pop	r0
 26c:	0f 90       	pop	r0
 26e:	df 91       	pop	r29
 270:	cf 91       	pop	r28
 272:	1f 91       	pop	r17
 274:	08 95       	ret

00000276 <checkpassword>:

/* Checks entered password against EEPROM */
bool checkpassword(void) 
{
 276:	ff 92       	push	r15
 278:	0f 93       	push	r16
 27a:	1f 93       	push	r17
 27c:	cf 93       	push	r28
 27e:	df 93       	push	r29
 280:	00 d0       	rcall	.+0      	; 0x282 <checkpassword+0xc>
 282:	00 d0       	rcall	.+0      	; 0x284 <checkpassword+0xe>
 284:	1f 92       	push	r1
 286:	cd b7       	in	r28, 0x3d	; 61
 288:	de b7       	in	r29, 0x3e	; 62
	u8 entered[MAX_PASSWORD_LEN];
	read_password_from_keypad(entered);
 28a:	ce 01       	movw	r24, r28
 28c:	01 96       	adiw	r24, 0x01	; 1
 28e:	0e 94 e0 00 	call	0x1c0	; 0x1c0 <read_password_from_keypad>

	for (u8 i = 0; i < MAX_PASSWORD_LEN; i++) 
 292:	f1 2c       	mov	r15, r1
 294:	0f c0       	rjmp	.+30     	; 0x2b4 <checkpassword+0x3e>
	{
		u8 stored = eeprom_read(PASSWORD_EEPROM_ADDR + i);
 296:	0f 2d       	mov	r16, r15
 298:	10 e0       	ldi	r17, 0x00	; 0
 29a:	c8 01       	movw	r24, r16
 29c:	0e 94 9b 04 	call	0x936	; 0x936 <eeprom_read>
		if (entered[i] != stored) return false;
 2a0:	e1 e0       	ldi	r30, 0x01	; 1
 2a2:	f0 e0       	ldi	r31, 0x00	; 0
 2a4:	ec 0f       	add	r30, r28
 2a6:	fd 1f       	adc	r31, r29
 2a8:	e0 0f       	add	r30, r16
 2aa:	f1 1f       	adc	r31, r17
 2ac:	90 81       	ld	r25, Z
 2ae:	89 13       	cpse	r24, r25
 2b0:	06 c0       	rjmp	.+12     	; 0x2be <checkpassword+0x48>
bool checkpassword(void) 
{
	u8 entered[MAX_PASSWORD_LEN];
	read_password_from_keypad(entered);

	for (u8 i = 0; i < MAX_PASSWORD_LEN; i++) 
 2b2:	f3 94       	inc	r15
 2b4:	84 e0       	ldi	r24, 0x04	; 4
 2b6:	8f 15       	cp	r24, r15
 2b8:	70 f7       	brcc	.-36     	; 0x296 <checkpassword+0x20>
	{
		u8 stored = eeprom_read(PASSWORD_EEPROM_ADDR + i);
		if (entered[i] != stored) return false;
	}
	return true;
 2ba:	81 e0       	ldi	r24, 0x01	; 1
 2bc:	01 c0       	rjmp	.+2      	; 0x2c0 <checkpassword+0x4a>
	read_password_from_keypad(entered);

	for (u8 i = 0; i < MAX_PASSWORD_LEN; i++) 
	{
		u8 stored = eeprom_read(PASSWORD_EEPROM_ADDR + i);
		if (entered[i] != stored) return false;
 2be:	80 e0       	ldi	r24, 0x00	; 0
	}
	return true;
}
 2c0:	0f 90       	pop	r0
 2c2:	0f 90       	pop	r0
 2c4:	0f 90       	pop	r0
 2c6:	0f 90       	pop	r0
 2c8:	0f 90       	pop	r0
 2ca:	df 91       	pop	r29
 2cc:	cf 91       	pop	r28
 2ce:	1f 91       	pop	r17
 2d0:	0f 91       	pop	r16
 2d2:	ff 90       	pop	r15
 2d4:	08 95       	ret

000002d6 <is_password_set>:

/*Checks if password is set in EEPROM*/
bool is_password_set(void) 
{
	return (eeprom_read(PASSWORD_FLAG_ADDR) == PASSWORD_SET);
 2d6:	8f ef       	ldi	r24, 0xFF	; 255
 2d8:	90 e0       	ldi	r25, 0x00	; 0
 2da:	0e 94 9b 04 	call	0x936	; 0x936 <eeprom_read>
 2de:	91 e0       	ldi	r25, 0x01	; 1
 2e0:	8a 3a       	cpi	r24, 0xAA	; 170
 2e2:	09 f0       	breq	.+2      	; 0x2e6 <is_password_set+0x10>
 2e4:	90 e0       	ldi	r25, 0x00	; 0
}
 2e6:	89 2f       	mov	r24, r25
 2e8:	08 95       	ret

000002ea <Keypad_reset>:
	return loc_row;
}

static void Keypad_reset(void)
{
	dio_writePin(KPAD_ROW0_PORT, KPAD_ROW0_PIN, LOW);
 2ea:	40 e0       	ldi	r20, 0x00	; 0
 2ec:	60 e0       	ldi	r22, 0x00	; 0
 2ee:	81 e0       	ldi	r24, 0x01	; 1
 2f0:	0e 94 bc 03 	call	0x778	; 0x778 <dio_writePin>
	dio_writePin(KPAD_ROW1_PORT, KPAD_ROW1_PIN, LOW);
 2f4:	40 e0       	ldi	r20, 0x00	; 0
 2f6:	61 e0       	ldi	r22, 0x01	; 1
 2f8:	81 e0       	ldi	r24, 0x01	; 1
 2fa:	0e 94 bc 03 	call	0x778	; 0x778 <dio_writePin>
	dio_writePin(KPAD_ROW2_PORT, KPAD_ROW2_PIN, LOW);
 2fe:	40 e0       	ldi	r20, 0x00	; 0
 300:	62 e0       	ldi	r22, 0x02	; 2
 302:	81 e0       	ldi	r24, 0x01	; 1
 304:	0e 94 bc 03 	call	0x778	; 0x778 <dio_writePin>
	dio_writePin(KPAD_ROW3_PORT, KPAD_ROW3_PIN, LOW);
 308:	40 e0       	ldi	r20, 0x00	; 0
 30a:	63 e0       	ldi	r22, 0x03	; 3
 30c:	81 e0       	ldi	r24, 0x01	; 1
 30e:	0e 94 bc 03 	call	0x778	; 0x778 <dio_writePin>
 312:	08 95       	ret

00000314 <keypad_getColumn>:


static u8 keypad_getColumn(void)
{
	u8 loc_col = 255 ;
	if (dio_readPin(KPAD_COL0_PORT, KPAD_COL0_PIN) == LOW)
 314:	64 e0       	ldi	r22, 0x04	; 4
 316:	81 e0       	ldi	r24, 0x01	; 1
 318:	0e 94 29 04 	call	0x852	; 0x852 <dio_readPin>
 31c:	88 23       	and	r24, r24
 31e:	a1 f0       	breq	.+40     	; 0x348 <keypad_getColumn+0x34>
	{
		loc_col =0;
	}
	else if (dio_readPin(KPAD_COL1_PORT, KPAD_COL1_PIN) == LOW)
 320:	65 e0       	ldi	r22, 0x05	; 5
 322:	81 e0       	ldi	r24, 0x01	; 1
 324:	0e 94 29 04 	call	0x852	; 0x852 <dio_readPin>
 328:	88 23       	and	r24, r24
 32a:	81 f0       	breq	.+32     	; 0x34c <keypad_getColumn+0x38>
	{
		loc_col =1;
	}
	else if (dio_readPin(KPAD_COL2_PORT, KPAD_COL2_PIN) == LOW)
 32c:	66 e0       	ldi	r22, 0x06	; 6
 32e:	81 e0       	ldi	r24, 0x01	; 1
 330:	0e 94 29 04 	call	0x852	; 0x852 <dio_readPin>
 334:	88 23       	and	r24, r24
 336:	61 f0       	breq	.+24     	; 0x350 <keypad_getColumn+0x3c>
	{
		loc_col =2;
	}
	else if (dio_readPin(KPAD_COL3_PORT, KPAD_COL3_PIN) == LOW)
 338:	67 e0       	ldi	r22, 0x07	; 7
 33a:	81 e0       	ldi	r24, 0x01	; 1
 33c:	0e 94 29 04 	call	0x852	; 0x852 <dio_readPin>
 340:	88 23       	and	r24, r24
 342:	41 f0       	breq	.+16     	; 0x354 <keypad_getColumn+0x40>



static u8 keypad_getColumn(void)
{
	u8 loc_col = 255 ;
 344:	8f ef       	ldi	r24, 0xFF	; 255
 346:	08 95       	ret
	if (dio_readPin(KPAD_COL0_PORT, KPAD_COL0_PIN) == LOW)
	{
		loc_col =0;
 348:	80 e0       	ldi	r24, 0x00	; 0
 34a:	08 95       	ret
	}
	else if (dio_readPin(KPAD_COL1_PORT, KPAD_COL1_PIN) == LOW)
	{
		loc_col =1;
 34c:	81 e0       	ldi	r24, 0x01	; 1
 34e:	08 95       	ret
	}
	else if (dio_readPin(KPAD_COL2_PORT, KPAD_COL2_PIN) == LOW)
	{
		loc_col =2;
 350:	82 e0       	ldi	r24, 0x02	; 2
 352:	08 95       	ret
	}
	else if (dio_readPin(KPAD_COL3_PORT, KPAD_COL3_PIN) == LOW)
	{
		loc_col =3;
 354:	83 e0       	ldi	r24, 0x03	; 3
	else
	{
		/* do nothing*/
	}
	return loc_col;
}
 356:	08 95       	ret

00000358 <keypad_getRow>:

static u8 keypad_getRow(u8 loc_col)
{
 358:	cf 93       	push	r28
 35a:	c8 2f       	mov	r28, r24
	u8 loc_row =255;
	dio_writePin(KPAD_ROW0_PORT, KPAD_ROW0_PIN, LOW);
 35c:	40 e0       	ldi	r20, 0x00	; 0
 35e:	60 e0       	ldi	r22, 0x00	; 0
 360:	81 e0       	ldi	r24, 0x01	; 1
 362:	0e 94 bc 03 	call	0x778	; 0x778 <dio_writePin>
	dio_writePin(KPAD_ROW1_PORT, KPAD_ROW1_PIN, HIGH);
 366:	41 e0       	ldi	r20, 0x01	; 1
 368:	61 e0       	ldi	r22, 0x01	; 1
 36a:	81 e0       	ldi	r24, 0x01	; 1
 36c:	0e 94 bc 03 	call	0x778	; 0x778 <dio_writePin>
	dio_writePin(KPAD_ROW2_PORT, KPAD_ROW2_PIN, HIGH);
 370:	41 e0       	ldi	r20, 0x01	; 1
 372:	62 e0       	ldi	r22, 0x02	; 2
 374:	81 e0       	ldi	r24, 0x01	; 1
 376:	0e 94 bc 03 	call	0x778	; 0x778 <dio_writePin>
	dio_writePin(KPAD_ROW3_PORT, KPAD_ROW3_PIN, HIGH);
 37a:	41 e0       	ldi	r20, 0x01	; 1
 37c:	63 e0       	ldi	r22, 0x03	; 3
 37e:	81 e0       	ldi	r24, 0x01	; 1
 380:	0e 94 bc 03 	call	0x778	; 0x778 <dio_writePin>
	if (keypad_getColumn() == loc_col)
 384:	0e 94 8a 01 	call	0x314	; 0x314 <keypad_getColumn>
 388:	8c 17       	cp	r24, r28
 38a:	09 f4       	brne	.+2      	; 0x38e <keypad_getRow+0x36>
 38c:	4a c0       	rjmp	.+148    	; 0x422 <__EEPROM_REGION_LENGTH__+0x22>
	{
		loc_row =0;
	}
	else
	{
		dio_writePin(KPAD_ROW0_PORT, KPAD_ROW0_PIN, HIGH);
 38e:	41 e0       	ldi	r20, 0x01	; 1
 390:	60 e0       	ldi	r22, 0x00	; 0
 392:	81 e0       	ldi	r24, 0x01	; 1
 394:	0e 94 bc 03 	call	0x778	; 0x778 <dio_writePin>
		dio_writePin(KPAD_ROW1_PORT, KPAD_ROW1_PIN, LOW);
 398:	40 e0       	ldi	r20, 0x00	; 0
 39a:	61 e0       	ldi	r22, 0x01	; 1
 39c:	81 e0       	ldi	r24, 0x01	; 1
 39e:	0e 94 bc 03 	call	0x778	; 0x778 <dio_writePin>
		dio_writePin(KPAD_ROW2_PORT, KPAD_ROW2_PIN, HIGH);
 3a2:	41 e0       	ldi	r20, 0x01	; 1
 3a4:	62 e0       	ldi	r22, 0x02	; 2
 3a6:	81 e0       	ldi	r24, 0x01	; 1
 3a8:	0e 94 bc 03 	call	0x778	; 0x778 <dio_writePin>
		dio_writePin(KPAD_ROW3_PORT, KPAD_ROW3_PIN, HIGH);
 3ac:	41 e0       	ldi	r20, 0x01	; 1
 3ae:	63 e0       	ldi	r22, 0x03	; 3
 3b0:	81 e0       	ldi	r24, 0x01	; 1
 3b2:	0e 94 bc 03 	call	0x778	; 0x778 <dio_writePin>
		if (keypad_getColumn() == loc_col)
 3b6:	0e 94 8a 01 	call	0x314	; 0x314 <keypad_getColumn>
 3ba:	c8 17       	cp	r28, r24
 3bc:	a1 f1       	breq	.+104    	; 0x426 <__EEPROM_REGION_LENGTH__+0x26>
		{
			loc_row =1;
		}
		else
		{
			dio_writePin(KPAD_ROW0_PORT, KPAD_ROW0_PIN, HIGH);
 3be:	41 e0       	ldi	r20, 0x01	; 1
 3c0:	60 e0       	ldi	r22, 0x00	; 0
 3c2:	81 e0       	ldi	r24, 0x01	; 1
 3c4:	0e 94 bc 03 	call	0x778	; 0x778 <dio_writePin>
			dio_writePin(KPAD_ROW1_PORT, KPAD_ROW1_PIN, HIGH);
 3c8:	41 e0       	ldi	r20, 0x01	; 1
 3ca:	61 e0       	ldi	r22, 0x01	; 1
 3cc:	81 e0       	ldi	r24, 0x01	; 1
 3ce:	0e 94 bc 03 	call	0x778	; 0x778 <dio_writePin>
			dio_writePin(KPAD_ROW2_PORT, KPAD_ROW2_PIN, LOW);
 3d2:	40 e0       	ldi	r20, 0x00	; 0
 3d4:	62 e0       	ldi	r22, 0x02	; 2
 3d6:	81 e0       	ldi	r24, 0x01	; 1
 3d8:	0e 94 bc 03 	call	0x778	; 0x778 <dio_writePin>
			dio_writePin(KPAD_ROW3_PORT, KPAD_ROW3_PIN, HIGH);
 3dc:	41 e0       	ldi	r20, 0x01	; 1
 3de:	63 e0       	ldi	r22, 0x03	; 3
 3e0:	81 e0       	ldi	r24, 0x01	; 1
 3e2:	0e 94 bc 03 	call	0x778	; 0x778 <dio_writePin>
			if (keypad_getColumn() == loc_col)
 3e6:	0e 94 8a 01 	call	0x314	; 0x314 <keypad_getColumn>
 3ea:	c8 17       	cp	r28, r24
 3ec:	f1 f0       	breq	.+60     	; 0x42a <__EEPROM_REGION_LENGTH__+0x2a>
			{
				loc_row =2;
			}
			else
			{
				dio_writePin(KPAD_ROW0_PORT, KPAD_ROW0_PIN, HIGH);
 3ee:	41 e0       	ldi	r20, 0x01	; 1
 3f0:	60 e0       	ldi	r22, 0x00	; 0
 3f2:	81 e0       	ldi	r24, 0x01	; 1
 3f4:	0e 94 bc 03 	call	0x778	; 0x778 <dio_writePin>
				dio_writePin(KPAD_ROW1_PORT, KPAD_ROW1_PIN, HIGH);
 3f8:	41 e0       	ldi	r20, 0x01	; 1
 3fa:	61 e0       	ldi	r22, 0x01	; 1
 3fc:	81 e0       	ldi	r24, 0x01	; 1
 3fe:	0e 94 bc 03 	call	0x778	; 0x778 <dio_writePin>
				dio_writePin(KPAD_ROW2_PORT, KPAD_ROW2_PIN, HIGH);
 402:	41 e0       	ldi	r20, 0x01	; 1
 404:	62 e0       	ldi	r22, 0x02	; 2
 406:	81 e0       	ldi	r24, 0x01	; 1
 408:	0e 94 bc 03 	call	0x778	; 0x778 <dio_writePin>
				dio_writePin(KPAD_ROW3_PORT, KPAD_ROW3_PIN, LOW);
 40c:	40 e0       	ldi	r20, 0x00	; 0
 40e:	63 e0       	ldi	r22, 0x03	; 3
 410:	81 e0       	ldi	r24, 0x01	; 1
 412:	0e 94 bc 03 	call	0x778	; 0x778 <dio_writePin>
				if (keypad_getColumn() == loc_col)
 416:	0e 94 8a 01 	call	0x314	; 0x314 <keypad_getColumn>
 41a:	c8 13       	cpse	r28, r24
 41c:	08 c0       	rjmp	.+16     	; 0x42e <__EEPROM_REGION_LENGTH__+0x2e>
				{
					loc_row =3;
 41e:	83 e0       	ldi	r24, 0x03	; 3
 420:	07 c0       	rjmp	.+14     	; 0x430 <__EEPROM_REGION_LENGTH__+0x30>
	dio_writePin(KPAD_ROW1_PORT, KPAD_ROW1_PIN, HIGH);
	dio_writePin(KPAD_ROW2_PORT, KPAD_ROW2_PIN, HIGH);
	dio_writePin(KPAD_ROW3_PORT, KPAD_ROW3_PIN, HIGH);
	if (keypad_getColumn() == loc_col)
	{
		loc_row =0;
 422:	80 e0       	ldi	r24, 0x00	; 0
 424:	05 c0       	rjmp	.+10     	; 0x430 <__EEPROM_REGION_LENGTH__+0x30>
		dio_writePin(KPAD_ROW1_PORT, KPAD_ROW1_PIN, LOW);
		dio_writePin(KPAD_ROW2_PORT, KPAD_ROW2_PIN, HIGH);
		dio_writePin(KPAD_ROW3_PORT, KPAD_ROW3_PIN, HIGH);
		if (keypad_getColumn() == loc_col)
		{
			loc_row =1;
 426:	81 e0       	ldi	r24, 0x01	; 1
 428:	03 c0       	rjmp	.+6      	; 0x430 <__EEPROM_REGION_LENGTH__+0x30>
			dio_writePin(KPAD_ROW1_PORT, KPAD_ROW1_PIN, HIGH);
			dio_writePin(KPAD_ROW2_PORT, KPAD_ROW2_PIN, LOW);
			dio_writePin(KPAD_ROW3_PORT, KPAD_ROW3_PIN, HIGH);
			if (keypad_getColumn() == loc_col)
			{
				loc_row =2;
 42a:	82 e0       	ldi	r24, 0x02	; 2
 42c:	01 c0       	rjmp	.+2      	; 0x430 <__EEPROM_REGION_LENGTH__+0x30>
				{
					loc_row =3;
				}
				else
				{
					loc_row =255;
 42e:	8f ef       	ldi	r24, 0xFF	; 255
				}
			}
		}
	}
	return loc_row;
}
 430:	cf 91       	pop	r28
 432:	08 95       	ret

00000434 <keypad_init>:
	dio_writePin(KPAD_ROW2_PORT, KPAD_ROW2_PIN, LOW);
	dio_writePin(KPAD_ROW3_PORT, KPAD_ROW3_PIN, LOW);
}
void keypad_init(void)
{
	dio_setPinDirection(KPAD_ROW0_PORT, KPAD_ROW0_PIN, OUTPUT);
 434:	40 e0       	ldi	r20, 0x00	; 0
 436:	60 e0       	ldi	r22, 0x00	; 0
 438:	81 e0       	ldi	r24, 0x01	; 1
 43a:	0e 94 4f 03 	call	0x69e	; 0x69e <dio_setPinDirection>
	dio_setPinDirection(KPAD_ROW1_PORT, KPAD_ROW1_PIN, OUTPUT);
 43e:	40 e0       	ldi	r20, 0x00	; 0
 440:	61 e0       	ldi	r22, 0x01	; 1
 442:	81 e0       	ldi	r24, 0x01	; 1
 444:	0e 94 4f 03 	call	0x69e	; 0x69e <dio_setPinDirection>
	dio_setPinDirection(KPAD_ROW2_PORT, KPAD_ROW2_PIN, OUTPUT);
 448:	40 e0       	ldi	r20, 0x00	; 0
 44a:	62 e0       	ldi	r22, 0x02	; 2
 44c:	81 e0       	ldi	r24, 0x01	; 1
 44e:	0e 94 4f 03 	call	0x69e	; 0x69e <dio_setPinDirection>
	dio_setPinDirection(KPAD_ROW3_PORT, KPAD_ROW3_PIN, OUTPUT);
 452:	40 e0       	ldi	r20, 0x00	; 0
 454:	63 e0       	ldi	r22, 0x03	; 3
 456:	81 e0       	ldi	r24, 0x01	; 1
 458:	0e 94 4f 03 	call	0x69e	; 0x69e <dio_setPinDirection>
	
	dio_setPinDirection(KPAD_COL0_PORT, KPAD_COL0_PIN, INPUT);
 45c:	41 e0       	ldi	r20, 0x01	; 1
 45e:	64 e0       	ldi	r22, 0x04	; 4
 460:	81 e0       	ldi	r24, 0x01	; 1
 462:	0e 94 4f 03 	call	0x69e	; 0x69e <dio_setPinDirection>
	dio_setPinDirection(KPAD_COL1_PORT, KPAD_COL1_PIN, INPUT);
 466:	41 e0       	ldi	r20, 0x01	; 1
 468:	65 e0       	ldi	r22, 0x05	; 5
 46a:	81 e0       	ldi	r24, 0x01	; 1
 46c:	0e 94 4f 03 	call	0x69e	; 0x69e <dio_setPinDirection>
	dio_setPinDirection(KPAD_COL2_PORT, KPAD_COL2_PIN, INPUT);
 470:	41 e0       	ldi	r20, 0x01	; 1
 472:	66 e0       	ldi	r22, 0x06	; 6
 474:	81 e0       	ldi	r24, 0x01	; 1
 476:	0e 94 4f 03 	call	0x69e	; 0x69e <dio_setPinDirection>
	dio_setPinDirection(KPAD_COL3_PORT, KPAD_COL3_PIN, INPUT);
 47a:	41 e0       	ldi	r20, 0x01	; 1
 47c:	67 e0       	ldi	r22, 0x07	; 7
 47e:	81 e0       	ldi	r24, 0x01	; 1
 480:	0e 94 4f 03 	call	0x69e	; 0x69e <dio_setPinDirection>
	
	Keypad_reset();
 484:	0e 94 75 01 	call	0x2ea	; 0x2ea <Keypad_reset>
 488:	08 95       	ret

0000048a <keypad_keyIsPressed>:


boolean keypad_keyIsPressed(void)
{
	if (
	dio_readPin(KPAD_COL0_PORT, KPAD_COL0_PIN) == LOW ||
 48a:	64 e0       	ldi	r22, 0x04	; 4
 48c:	81 e0       	ldi	r24, 0x01	; 1
 48e:	0e 94 29 04 	call	0x852	; 0x852 <dio_readPin>
}


boolean keypad_keyIsPressed(void)
{
	if (
 492:	88 23       	and	r24, r24
 494:	a1 f0       	breq	.+40     	; 0x4be <keypad_keyIsPressed+0x34>
	dio_readPin(KPAD_COL0_PORT, KPAD_COL0_PIN) == LOW ||
	dio_readPin(KPAD_COL1_PORT, KPAD_COL1_PIN) == LOW ||
 496:	65 e0       	ldi	r22, 0x05	; 5
 498:	81 e0       	ldi	r24, 0x01	; 1
 49a:	0e 94 29 04 	call	0x852	; 0x852 <dio_readPin>


boolean keypad_keyIsPressed(void)
{
	if (
	dio_readPin(KPAD_COL0_PORT, KPAD_COL0_PIN) == LOW ||
 49e:	88 23       	and	r24, r24
 4a0:	81 f0       	breq	.+32     	; 0x4c2 <keypad_keyIsPressed+0x38>
	dio_readPin(KPAD_COL1_PORT, KPAD_COL1_PIN) == LOW ||
	dio_readPin(KPAD_COL2_PORT, KPAD_COL2_PIN) == LOW ||
 4a2:	66 e0       	ldi	r22, 0x06	; 6
 4a4:	81 e0       	ldi	r24, 0x01	; 1
 4a6:	0e 94 29 04 	call	0x852	; 0x852 <dio_readPin>

boolean keypad_keyIsPressed(void)
{
	if (
	dio_readPin(KPAD_COL0_PORT, KPAD_COL0_PIN) == LOW ||
	dio_readPin(KPAD_COL1_PORT, KPAD_COL1_PIN) == LOW ||
 4aa:	88 23       	and	r24, r24
 4ac:	61 f0       	breq	.+24     	; 0x4c6 <keypad_keyIsPressed+0x3c>
	dio_readPin(KPAD_COL2_PORT, KPAD_COL2_PIN) == LOW ||
	dio_readPin(KPAD_COL3_PORT, KPAD_COL3_PIN) == LOW
 4ae:	67 e0       	ldi	r22, 0x07	; 7
 4b0:	81 e0       	ldi	r24, 0x01	; 1
 4b2:	0e 94 29 04 	call	0x852	; 0x852 <dio_readPin>
boolean keypad_keyIsPressed(void)
{
	if (
	dio_readPin(KPAD_COL0_PORT, KPAD_COL0_PIN) == LOW ||
	dio_readPin(KPAD_COL1_PORT, KPAD_COL1_PIN) == LOW ||
	dio_readPin(KPAD_COL2_PORT, KPAD_COL2_PIN) == LOW ||
 4b6:	88 23       	and	r24, r24
 4b8:	41 f0       	breq	.+16     	; 0x4ca <keypad_keyIsPressed+0x40>
	{
		return TRUE;
	}
	else
	{
		return FALSE;
 4ba:	80 e0       	ldi	r24, 0x00	; 0
 4bc:	08 95       	ret
	dio_readPin(KPAD_COL1_PORT, KPAD_COL1_PIN) == LOW ||
	dio_readPin(KPAD_COL2_PORT, KPAD_COL2_PIN) == LOW ||
	dio_readPin(KPAD_COL3_PORT, KPAD_COL3_PIN) == LOW
	)
	{
		return TRUE;
 4be:	81 e0       	ldi	r24, 0x01	; 1
 4c0:	08 95       	ret
 4c2:	81 e0       	ldi	r24, 0x01	; 1
 4c4:	08 95       	ret
 4c6:	81 e0       	ldi	r24, 0x01	; 1
 4c8:	08 95       	ret
 4ca:	81 e0       	ldi	r24, 0x01	; 1
	}
	else
	{
		return FALSE;
	}
}
 4cc:	08 95       	ret

000004ce <keypad_getKeyPressed>:

u8 keypad_getKeyPressed(void)
{
 4ce:	cf 93       	push	r28
 4d0:	df 93       	push	r29
	u8 loc_row=0;
	u8 loc_col=0;
	u8 loc_key =0;
	
	loc_col = keypad_getColumn();
 4d2:	0e 94 8a 01 	call	0x314	; 0x314 <keypad_getColumn>
 4d6:	d8 2f       	mov	r29, r24
	loc_row = keypad_getRow(loc_col);
 4d8:	0e 94 ac 01 	call	0x358	; 0x358 <keypad_getRow>
 4dc:	c8 2f       	mov	r28, r24
	
	Keypad_reset();
 4de:	0e 94 75 01 	call	0x2ea	; 0x2ea <Keypad_reset>
	if ((loc_row < ROW_NO) && (loc_col < COL_NO))
 4e2:	c4 30       	cpi	r28, 0x04	; 4
 4e4:	70 f4       	brcc	.+28     	; 0x502 <keypad_getKeyPressed+0x34>
 4e6:	d4 30       	cpi	r29, 0x04	; 4
 4e8:	70 f4       	brcc	.+28     	; 0x506 <keypad_getKeyPressed+0x38>
	{
		loc_key = keypad_keyLayout[loc_row][loc_col];
 4ea:	ec 2f       	mov	r30, r28
 4ec:	f0 e0       	ldi	r31, 0x00	; 0
 4ee:	ee 0f       	add	r30, r30
 4f0:	ff 1f       	adc	r31, r31
 4f2:	ee 0f       	add	r30, r30
 4f4:	ff 1f       	adc	r31, r31
 4f6:	e0 5a       	subi	r30, 0xA0	; 160
 4f8:	ff 4f       	sbci	r31, 0xFF	; 255
 4fa:	ed 0f       	add	r30, r29
 4fc:	f1 1d       	adc	r31, r1
 4fe:	80 81       	ld	r24, Z
 500:	03 c0       	rjmp	.+6      	; 0x508 <keypad_getKeyPressed+0x3a>
	}
	else
	{
		loc_key = 255;
 502:	8f ef       	ldi	r24, 0xFF	; 255
 504:	01 c0       	rjmp	.+2      	; 0x508 <keypad_getKeyPressed+0x3a>
 506:	8f ef       	ldi	r24, 0xFF	; 255
 508:	2f ef       	ldi	r18, 0xFF	; 255
 50a:	30 e7       	ldi	r19, 0x70	; 112
 50c:	92 e0       	ldi	r25, 0x02	; 2
 50e:	21 50       	subi	r18, 0x01	; 1
 510:	30 40       	sbci	r19, 0x00	; 0
 512:	90 40       	sbci	r25, 0x00	; 0
 514:	e1 f7       	brne	.-8      	; 0x50e <keypad_getKeyPressed+0x40>
 516:	00 c0       	rjmp	.+0      	; 0x518 <keypad_getKeyPressed+0x4a>
 518:	00 00       	nop
	}
	_delay_ms(50);
	return loc_key;
 51a:	df 91       	pop	r29
 51c:	cf 91       	pop	r28
 51e:	08 95       	ret

00000520 <lcd_enablePulse>:
	lcd_enablePulse();
}

static void lcd_enablePulse(void)
{
	dio_writePin(LCD_EN_PORT, LCD_EN_PIN, HIGH);
 520:	41 e0       	ldi	r20, 0x01	; 1
 522:	62 e0       	ldi	r22, 0x02	; 2
 524:	82 e0       	ldi	r24, 0x02	; 2
 526:	0e 94 bc 03 	call	0x778	; 0x778 <dio_writePin>
 52a:	8f e9       	ldi	r24, 0x9F	; 159
 52c:	9f e0       	ldi	r25, 0x0F	; 15
 52e:	01 97       	sbiw	r24, 0x01	; 1
 530:	f1 f7       	brne	.-4      	; 0x52e <lcd_enablePulse+0xe>
 532:	00 c0       	rjmp	.+0      	; 0x534 <lcd_enablePulse+0x14>
 534:	00 00       	nop
	_delay_ms(1);
	dio_writePin(LCD_EN_PORT, LCD_EN_PIN, LOW);
 536:	40 e0       	ldi	r20, 0x00	; 0
 538:	62 e0       	ldi	r22, 0x02	; 2
 53a:	82 e0       	ldi	r24, 0x02	; 2
 53c:	0e 94 bc 03 	call	0x778	; 0x778 <dio_writePin>
 540:	8f e3       	ldi	r24, 0x3F	; 63
 542:	9f e1       	ldi	r25, 0x1F	; 31
 544:	01 97       	sbiw	r24, 0x01	; 1
 546:	f1 f7       	brne	.-4      	; 0x544 <lcd_enablePulse+0x24>
 548:	00 c0       	rjmp	.+0      	; 0x54a <lcd_enablePulse+0x2a>
 54a:	00 00       	nop
 54c:	08 95       	ret

0000054e <lcd_sendData>:

static void lcd_enablePulse(void);
static void lcd_sendData(u8 data);

static void lcd_sendData(u8 data)
{
 54e:	cf 93       	push	r28
 550:	c8 2f       	mov	r28, r24
	dio_writePin(LCD_RS_PORT, LCD_RS_PIN, HIGH);
 552:	41 e0       	ldi	r20, 0x01	; 1
 554:	60 e0       	ldi	r22, 0x00	; 0
 556:	82 e0       	ldi	r24, 0x02	; 2
 558:	0e 94 bc 03 	call	0x778	; 0x778 <dio_writePin>
	
	dio_writePort(LCD_DATA_PORT, data);
 55c:	6c 2f       	mov	r22, r28
 55e:	83 e0       	ldi	r24, 0x03	; 3
 560:	0e 94 8b 04 	call	0x916	; 0x916 <dio_writePort>
	
	lcd_enablePulse();
 564:	0e 94 90 02 	call	0x520	; 0x520 <lcd_enablePulse>
}
 568:	cf 91       	pop	r28
 56a:	08 95       	ret

0000056c <lcd_sendCmd>:
	lcd_sendCmd(_LCD_8BIT_MODE);
	lcd_gotoRowColumn(0,0);
}

void lcd_sendCmd(lcd_cmd_t cmd)
{
 56c:	cf 93       	push	r28
 56e:	c8 2f       	mov	r28, r24
	dio_writePin(LCD_RS_PORT, LCD_RS_PIN, LOW);
 570:	40 e0       	ldi	r20, 0x00	; 0
 572:	60 e0       	ldi	r22, 0x00	; 0
 574:	82 e0       	ldi	r24, 0x02	; 2
 576:	0e 94 bc 03 	call	0x778	; 0x778 <dio_writePin>
	
	dio_writePort(LCD_DATA_PORT, cmd);
 57a:	6c 2f       	mov	r22, r28
 57c:	83 e0       	ldi	r24, 0x03	; 3
 57e:	0e 94 8b 04 	call	0x916	; 0x916 <dio_writePort>
	
	lcd_enablePulse();
 582:	0e 94 90 02 	call	0x520	; 0x520 <lcd_enablePulse>
}
 586:	cf 91       	pop	r28
 588:	08 95       	ret

0000058a <lcd_displayChr>:


void lcd_displayChr(u8 chr)
{
	lcd_sendData (chr);
 58a:	0e 94 a7 02 	call	0x54e	; 0x54e <lcd_sendData>
 58e:	08 95       	ret

00000590 <lcd_displaystr>:
}

void lcd_displaystr(u8 str[])
{
 590:	cf 93       	push	r28
 592:	df 93       	push	r29
 594:	ec 01       	movw	r28, r24
	while (*str != '\0')
 596:	03 c0       	rjmp	.+6      	; 0x59e <lcd_displaystr+0xe>
	{
		lcd_displayChr(*str);
 598:	0e 94 c5 02 	call	0x58a	; 0x58a <lcd_displayChr>
		str++;
 59c:	21 96       	adiw	r28, 0x01	; 1
	lcd_sendData (chr);
}

void lcd_displaystr(u8 str[])
{
	while (*str != '\0')
 59e:	88 81       	ld	r24, Y
 5a0:	81 11       	cpse	r24, r1
 5a2:	fa cf       	rjmp	.-12     	; 0x598 <lcd_displaystr+0x8>
	{
		lcd_displayChr(*str);
		str++;
	}
}
 5a4:	df 91       	pop	r29
 5a6:	cf 91       	pop	r28
 5a8:	08 95       	ret

000005aa <lcd_gotoRowColumn>:

void lcd_gotoRowColumn(u8 row, u8 col)
{
	switch (row)
 5aa:	88 23       	and	r24, r24
 5ac:	19 f0       	breq	.+6      	; 0x5b4 <lcd_gotoRowColumn+0xa>
 5ae:	81 30       	cpi	r24, 0x01	; 1
 5b0:	31 f0       	breq	.+12     	; 0x5be <lcd_gotoRowColumn+0x14>
 5b2:	08 95       	ret
	{
		case 0:
		lcd_sendCmd(0x80+col);
 5b4:	80 e8       	ldi	r24, 0x80	; 128
 5b6:	86 0f       	add	r24, r22
 5b8:	0e 94 b6 02 	call	0x56c	; 0x56c <lcd_sendCmd>
		break;
 5bc:	08 95       	ret
		
		
		case 1:
		lcd_sendCmd(0xC0+col);
 5be:	80 ec       	ldi	r24, 0xC0	; 192
 5c0:	86 0f       	add	r24, r22
 5c2:	0e 94 b6 02 	call	0x56c	; 0x56c <lcd_sendCmd>
 5c6:	08 95       	ret

000005c8 <lcd_init>:
	_delay_ms(2);
}

void lcd_init(void)
{
	dio_setPortDirection(LCD_DATA_PORT,OUTPUT);				/* config data line as output	*/
 5c8:	60 e0       	ldi	r22, 0x00	; 0
 5ca:	83 e0       	ldi	r24, 0x03	; 3
 5cc:	0e 94 67 04 	call	0x8ce	; 0x8ce <dio_setPortDirection>
	dio_setPinDirection(LCD_RS_PORT, LCD_RS_PIN, OUTPUT);   /* config RS pin as output	*/
 5d0:	40 e0       	ldi	r20, 0x00	; 0
 5d2:	60 e0       	ldi	r22, 0x00	; 0
 5d4:	82 e0       	ldi	r24, 0x02	; 2
 5d6:	0e 94 4f 03 	call	0x69e	; 0x69e <dio_setPinDirection>
	dio_setPinDirection(LCD_RW_PORT, LCD_RW_PIN, OUTPUT);	/* config RW pin as output	*/
 5da:	40 e0       	ldi	r20, 0x00	; 0
 5dc:	61 e0       	ldi	r22, 0x01	; 1
 5de:	82 e0       	ldi	r24, 0x02	; 2
 5e0:	0e 94 4f 03 	call	0x69e	; 0x69e <dio_setPinDirection>
	dio_setPinDirection(LCD_EN_PORT, LCD_EN_PIN, OUTPUT);	/* config EN pin as output	*/
 5e4:	40 e0       	ldi	r20, 0x00	; 0
 5e6:	62 e0       	ldi	r22, 0x02	; 2
 5e8:	82 e0       	ldi	r24, 0x02	; 2
 5ea:	0e 94 4f 03 	call	0x69e	; 0x69e <dio_setPinDirection>
	
	dio_writePin(LCD_RW_PORT, LCD_RW_PIN, LOW);				/* we always write to LCD	*/
 5ee:	40 e0       	ldi	r20, 0x00	; 0
 5f0:	61 e0       	ldi	r22, 0x01	; 1
 5f2:	82 e0       	ldi	r24, 0x02	; 2
 5f4:	0e 94 bc 03 	call	0x778	; 0x778 <dio_writePin>
 5f8:	8f e5       	ldi	r24, 0x5F	; 95
 5fa:	9a ee       	ldi	r25, 0xEA	; 234
 5fc:	01 97       	sbiw	r24, 0x01	; 1
 5fe:	f1 f7       	brne	.-4      	; 0x5fc <lcd_init+0x34>
 600:	00 c0       	rjmp	.+0      	; 0x602 <lcd_init+0x3a>
 602:	00 00       	nop
	
	_delay_ms(15);
	lcd_sendCmd(_LCD_INIT_CMD);
 604:	80 e3       	ldi	r24, 0x30	; 48
 606:	0e 94 b6 02 	call	0x56c	; 0x56c <lcd_sendCmd>
 60a:	8f e1       	ldi	r24, 0x1F	; 31
 60c:	9e e4       	ldi	r25, 0x4E	; 78
 60e:	01 97       	sbiw	r24, 0x01	; 1
 610:	f1 f7       	brne	.-4      	; 0x60e <lcd_init+0x46>
 612:	00 c0       	rjmp	.+0      	; 0x614 <lcd_init+0x4c>
 614:	00 00       	nop
	_delay_ms(5);
	lcd_sendCmd(_LCD_INIT_CMD);
 616:	80 e3       	ldi	r24, 0x30	; 48
 618:	0e 94 b6 02 	call	0x56c	; 0x56c <lcd_sendCmd>
	#else
		//round up by default
		__ticks_dc = (uint32_t)(ceil(fabs(__tmp)));
	#endif

	__builtin_avr_delay_cycles(__ticks_dc);
 61c:	8f e8       	ldi	r24, 0x8F	; 143
 61e:	91 e0       	ldi	r25, 0x01	; 1
 620:	01 97       	sbiw	r24, 0x01	; 1
 622:	f1 f7       	brne	.-4      	; 0x620 <lcd_init+0x58>
 624:	00 c0       	rjmp	.+0      	; 0x626 <lcd_init+0x5e>
 626:	00 00       	nop
	_delay_us(100);
	lcd_sendCmd(_LCD_INIT_CMD);
 628:	80 e3       	ldi	r24, 0x30	; 48
 62a:	0e 94 b6 02 	call	0x56c	; 0x56c <lcd_sendCmd>
	
	lcd_sendCmd(_LCD_TURN_ON_CURSOR_ON);
 62e:	8d e0       	ldi	r24, 0x0D	; 13
 630:	0e 94 b6 02 	call	0x56c	; 0x56c <lcd_sendCmd>
	lcd_sendCmd(_LCD_8BIT_MODE);
 634:	88 e3       	ldi	r24, 0x38	; 56
 636:	0e 94 b6 02 	call	0x56c	; 0x56c <lcd_sendCmd>
	lcd_gotoRowColumn(0,0);
 63a:	60 e0       	ldi	r22, 0x00	; 0
 63c:	80 e0       	ldi	r24, 0x00	; 0
 63e:	0e 94 d5 02 	call	0x5aa	; 0x5aa <lcd_gotoRowColumn>
 642:	08 95       	ret

00000644 <led_init>:
#include "led_types.h"
#include "led_cfg.h"

void led_init(void)
{
	dio_setPinDirection(LED1_PORT, LED1_PIN,OUTPUT);
 644:	40 e0       	ldi	r20, 0x00	; 0
 646:	60 e0       	ldi	r22, 0x00	; 0
 648:	80 e0       	ldi	r24, 0x00	; 0
 64a:	0e 94 4f 03 	call	0x69e	; 0x69e <dio_setPinDirection>
	dio_setPinDirection(LED2_PORT, LED2_PIN,OUTPUT);
 64e:	40 e0       	ldi	r20, 0x00	; 0
 650:	61 e0       	ldi	r22, 0x01	; 1
 652:	80 e0       	ldi	r24, 0x00	; 0
 654:	0e 94 4f 03 	call	0x69e	; 0x69e <dio_setPinDirection>
 658:	08 95       	ret

0000065a <led_on>:
}

void led_on(led_ledId_t ledID)
{
	switch (ledID)
 65a:	88 23       	and	r24, r24
 65c:	19 f0       	breq	.+6      	; 0x664 <led_on+0xa>
 65e:	81 30       	cpi	r24, 0x01	; 1
 660:	39 f0       	breq	.+14     	; 0x670 <led_on+0x16>
 662:	08 95       	ret
	{
		case LED1:
		dio_writePin(LED1_PORT, LED1_PIN, HIGH);
 664:	41 e0       	ldi	r20, 0x01	; 1
 666:	60 e0       	ldi	r22, 0x00	; 0
 668:	80 e0       	ldi	r24, 0x00	; 0
 66a:	0e 94 bc 03 	call	0x778	; 0x778 <dio_writePin>
		break;
 66e:	08 95       	ret
		
		case LED2:
		dio_writePin(LED2_PORT, LED2_PIN, HIGH);
 670:	41 e0       	ldi	r20, 0x01	; 1
 672:	61 e0       	ldi	r22, 0x01	; 1
 674:	80 e0       	ldi	r24, 0x00	; 0
 676:	0e 94 bc 03 	call	0x778	; 0x778 <dio_writePin>
 67a:	08 95       	ret

0000067c <led_off>:
	}
}

void led_off(led_ledId_t ledID)
{
	switch (ledID)
 67c:	88 23       	and	r24, r24
 67e:	19 f0       	breq	.+6      	; 0x686 <led_off+0xa>
 680:	81 30       	cpi	r24, 0x01	; 1
 682:	39 f0       	breq	.+14     	; 0x692 <led_off+0x16>
 684:	08 95       	ret
	{
		case LED1:
		dio_writePin(LED1_PORT, LED1_PIN, LOW);
 686:	40 e0       	ldi	r20, 0x00	; 0
 688:	60 e0       	ldi	r22, 0x00	; 0
 68a:	80 e0       	ldi	r24, 0x00	; 0
 68c:	0e 94 bc 03 	call	0x778	; 0x778 <dio_writePin>
		break;
 690:	08 95       	ret
		
		case LED2:
		dio_writePin(LED2_PORT, LED2_PIN, LOW);
 692:	40 e0       	ldi	r20, 0x00	; 0
 694:	61 e0       	ldi	r22, 0x01	; 1
 696:	80 e0       	ldi	r24, 0x00	; 0
 698:	0e 94 bc 03 	call	0x778	; 0x778 <dio_writePin>
 69c:	08 95       	ret

0000069e <dio_setPinDirection>:
		case DIO_PORTC:
		FLIP_BIT(DIO_PORTC_REG,pinId);
		break;
		
		case DIO_PORTD:
		FLIP_BIT(DIO_PORTD_REG,pinId);
 69e:	81 30       	cpi	r24, 0x01	; 1
 6a0:	01 f1       	breq	.+64     	; 0x6e2 <dio_setPinDirection+0x44>
 6a2:	30 f0       	brcs	.+12     	; 0x6b0 <dio_setPinDirection+0x12>
 6a4:	82 30       	cpi	r24, 0x02	; 2
 6a6:	b1 f1       	breq	.+108    	; 0x714 <dio_setPinDirection+0x76>
 6a8:	83 30       	cpi	r24, 0x03	; 3
 6aa:	09 f4       	brne	.+2      	; 0x6ae <dio_setPinDirection+0x10>
 6ac:	4c c0       	rjmp	.+152    	; 0x746 <dio_setPinDirection+0xa8>
 6ae:	08 95       	ret
 6b0:	41 11       	cpse	r20, r1
 6b2:	0b c0       	rjmp	.+22     	; 0x6ca <dio_setPinDirection+0x2c>
 6b4:	2a b3       	in	r18, 0x1a	; 26
 6b6:	81 e0       	ldi	r24, 0x01	; 1
 6b8:	90 e0       	ldi	r25, 0x00	; 0
 6ba:	02 c0       	rjmp	.+4      	; 0x6c0 <dio_setPinDirection+0x22>
 6bc:	88 0f       	add	r24, r24
 6be:	99 1f       	adc	r25, r25
 6c0:	6a 95       	dec	r22
 6c2:	e2 f7       	brpl	.-8      	; 0x6bc <dio_setPinDirection+0x1e>
 6c4:	82 2b       	or	r24, r18
 6c6:	8a bb       	out	0x1a, r24	; 26
 6c8:	08 95       	ret
 6ca:	2a b3       	in	r18, 0x1a	; 26
 6cc:	81 e0       	ldi	r24, 0x01	; 1
 6ce:	90 e0       	ldi	r25, 0x00	; 0
 6d0:	02 c0       	rjmp	.+4      	; 0x6d6 <dio_setPinDirection+0x38>
 6d2:	88 0f       	add	r24, r24
 6d4:	99 1f       	adc	r25, r25
 6d6:	6a 95       	dec	r22
 6d8:	e2 f7       	brpl	.-8      	; 0x6d2 <dio_setPinDirection+0x34>
 6da:	80 95       	com	r24
 6dc:	82 23       	and	r24, r18
 6de:	8a bb       	out	0x1a, r24	; 26
 6e0:	08 95       	ret
 6e2:	41 11       	cpse	r20, r1
 6e4:	0b c0       	rjmp	.+22     	; 0x6fc <dio_setPinDirection+0x5e>
 6e6:	27 b3       	in	r18, 0x17	; 23
 6e8:	81 e0       	ldi	r24, 0x01	; 1
 6ea:	90 e0       	ldi	r25, 0x00	; 0
 6ec:	02 c0       	rjmp	.+4      	; 0x6f2 <dio_setPinDirection+0x54>
 6ee:	88 0f       	add	r24, r24
 6f0:	99 1f       	adc	r25, r25
 6f2:	6a 95       	dec	r22
 6f4:	e2 f7       	brpl	.-8      	; 0x6ee <dio_setPinDirection+0x50>
 6f6:	82 2b       	or	r24, r18
 6f8:	87 bb       	out	0x17, r24	; 23
 6fa:	08 95       	ret
 6fc:	27 b3       	in	r18, 0x17	; 23
 6fe:	81 e0       	ldi	r24, 0x01	; 1
 700:	90 e0       	ldi	r25, 0x00	; 0
 702:	02 c0       	rjmp	.+4      	; 0x708 <dio_setPinDirection+0x6a>
 704:	88 0f       	add	r24, r24
 706:	99 1f       	adc	r25, r25
 708:	6a 95       	dec	r22
 70a:	e2 f7       	brpl	.-8      	; 0x704 <dio_setPinDirection+0x66>
 70c:	80 95       	com	r24
 70e:	82 23       	and	r24, r18
 710:	87 bb       	out	0x17, r24	; 23
 712:	08 95       	ret
 714:	41 11       	cpse	r20, r1
 716:	0b c0       	rjmp	.+22     	; 0x72e <dio_setPinDirection+0x90>
 718:	24 b3       	in	r18, 0x14	; 20
 71a:	81 e0       	ldi	r24, 0x01	; 1
 71c:	90 e0       	ldi	r25, 0x00	; 0
 71e:	02 c0       	rjmp	.+4      	; 0x724 <dio_setPinDirection+0x86>
 720:	88 0f       	add	r24, r24
 722:	99 1f       	adc	r25, r25
 724:	6a 95       	dec	r22
 726:	e2 f7       	brpl	.-8      	; 0x720 <dio_setPinDirection+0x82>
 728:	82 2b       	or	r24, r18
 72a:	84 bb       	out	0x14, r24	; 20
 72c:	08 95       	ret
 72e:	24 b3       	in	r18, 0x14	; 20
 730:	81 e0       	ldi	r24, 0x01	; 1
 732:	90 e0       	ldi	r25, 0x00	; 0
 734:	02 c0       	rjmp	.+4      	; 0x73a <dio_setPinDirection+0x9c>
 736:	88 0f       	add	r24, r24
 738:	99 1f       	adc	r25, r25
 73a:	6a 95       	dec	r22
 73c:	e2 f7       	brpl	.-8      	; 0x736 <dio_setPinDirection+0x98>
 73e:	80 95       	com	r24
 740:	82 23       	and	r24, r18
 742:	84 bb       	out	0x14, r24	; 20
 744:	08 95       	ret
 746:	41 11       	cpse	r20, r1
 748:	0b c0       	rjmp	.+22     	; 0x760 <dio_setPinDirection+0xc2>
 74a:	21 b3       	in	r18, 0x11	; 17
 74c:	81 e0       	ldi	r24, 0x01	; 1
 74e:	90 e0       	ldi	r25, 0x00	; 0
 750:	02 c0       	rjmp	.+4      	; 0x756 <dio_setPinDirection+0xb8>
 752:	88 0f       	add	r24, r24
 754:	99 1f       	adc	r25, r25
 756:	6a 95       	dec	r22
 758:	e2 f7       	brpl	.-8      	; 0x752 <dio_setPinDirection+0xb4>
 75a:	82 2b       	or	r24, r18
 75c:	81 bb       	out	0x11, r24	; 17
 75e:	08 95       	ret
 760:	21 b3       	in	r18, 0x11	; 17
 762:	81 e0       	ldi	r24, 0x01	; 1
 764:	90 e0       	ldi	r25, 0x00	; 0
 766:	02 c0       	rjmp	.+4      	; 0x76c <dio_setPinDirection+0xce>
 768:	88 0f       	add	r24, r24
 76a:	99 1f       	adc	r25, r25
 76c:	6a 95       	dec	r22
 76e:	e2 f7       	brpl	.-8      	; 0x768 <dio_setPinDirection+0xca>
 770:	80 95       	com	r24
 772:	82 23       	and	r24, r18
 774:	81 bb       	out	0x11, r24	; 17
 776:	08 95       	ret

00000778 <dio_writePin>:
 778:	81 30       	cpi	r24, 0x01	; 1
 77a:	01 f1       	breq	.+64     	; 0x7bc <dio_writePin+0x44>
 77c:	30 f0       	brcs	.+12     	; 0x78a <dio_writePin+0x12>
 77e:	82 30       	cpi	r24, 0x02	; 2
 780:	b1 f1       	breq	.+108    	; 0x7ee <dio_writePin+0x76>
 782:	83 30       	cpi	r24, 0x03	; 3
 784:	09 f4       	brne	.+2      	; 0x788 <dio_writePin+0x10>
 786:	4c c0       	rjmp	.+152    	; 0x820 <__DATA_REGION_LENGTH__+0x20>
 788:	08 95       	ret
 78a:	41 30       	cpi	r20, 0x01	; 1
 78c:	59 f4       	brne	.+22     	; 0x7a4 <dio_writePin+0x2c>
 78e:	2b b3       	in	r18, 0x1b	; 27
 790:	81 e0       	ldi	r24, 0x01	; 1
 792:	90 e0       	ldi	r25, 0x00	; 0
 794:	02 c0       	rjmp	.+4      	; 0x79a <dio_writePin+0x22>
 796:	88 0f       	add	r24, r24
 798:	99 1f       	adc	r25, r25
 79a:	6a 95       	dec	r22
 79c:	e2 f7       	brpl	.-8      	; 0x796 <dio_writePin+0x1e>
 79e:	82 2b       	or	r24, r18
 7a0:	8b bb       	out	0x1b, r24	; 27
 7a2:	08 95       	ret
 7a4:	2b b3       	in	r18, 0x1b	; 27
 7a6:	81 e0       	ldi	r24, 0x01	; 1
 7a8:	90 e0       	ldi	r25, 0x00	; 0
 7aa:	02 c0       	rjmp	.+4      	; 0x7b0 <dio_writePin+0x38>
 7ac:	88 0f       	add	r24, r24
 7ae:	99 1f       	adc	r25, r25
 7b0:	6a 95       	dec	r22
 7b2:	e2 f7       	brpl	.-8      	; 0x7ac <dio_writePin+0x34>
 7b4:	80 95       	com	r24
 7b6:	82 23       	and	r24, r18
 7b8:	8b bb       	out	0x1b, r24	; 27
 7ba:	08 95       	ret
 7bc:	41 30       	cpi	r20, 0x01	; 1
 7be:	59 f4       	brne	.+22     	; 0x7d6 <dio_writePin+0x5e>
 7c0:	28 b3       	in	r18, 0x18	; 24
 7c2:	81 e0       	ldi	r24, 0x01	; 1
 7c4:	90 e0       	ldi	r25, 0x00	; 0
 7c6:	02 c0       	rjmp	.+4      	; 0x7cc <dio_writePin+0x54>
 7c8:	88 0f       	add	r24, r24
 7ca:	99 1f       	adc	r25, r25
 7cc:	6a 95       	dec	r22
 7ce:	e2 f7       	brpl	.-8      	; 0x7c8 <dio_writePin+0x50>
 7d0:	82 2b       	or	r24, r18
 7d2:	88 bb       	out	0x18, r24	; 24
 7d4:	08 95       	ret
 7d6:	28 b3       	in	r18, 0x18	; 24
 7d8:	81 e0       	ldi	r24, 0x01	; 1
 7da:	90 e0       	ldi	r25, 0x00	; 0
 7dc:	02 c0       	rjmp	.+4      	; 0x7e2 <dio_writePin+0x6a>
 7de:	88 0f       	add	r24, r24
 7e0:	99 1f       	adc	r25, r25
 7e2:	6a 95       	dec	r22
 7e4:	e2 f7       	brpl	.-8      	; 0x7de <dio_writePin+0x66>
 7e6:	80 95       	com	r24
 7e8:	82 23       	and	r24, r18
 7ea:	88 bb       	out	0x18, r24	; 24
 7ec:	08 95       	ret
 7ee:	41 30       	cpi	r20, 0x01	; 1
 7f0:	59 f4       	brne	.+22     	; 0x808 <__DATA_REGION_LENGTH__+0x8>
 7f2:	25 b3       	in	r18, 0x15	; 21
 7f4:	81 e0       	ldi	r24, 0x01	; 1
 7f6:	90 e0       	ldi	r25, 0x00	; 0
 7f8:	02 c0       	rjmp	.+4      	; 0x7fe <dio_writePin+0x86>
 7fa:	88 0f       	add	r24, r24
 7fc:	99 1f       	adc	r25, r25
 7fe:	6a 95       	dec	r22
 800:	e2 f7       	brpl	.-8      	; 0x7fa <dio_writePin+0x82>
 802:	82 2b       	or	r24, r18
 804:	85 bb       	out	0x15, r24	; 21
 806:	08 95       	ret
 808:	25 b3       	in	r18, 0x15	; 21
 80a:	81 e0       	ldi	r24, 0x01	; 1
 80c:	90 e0       	ldi	r25, 0x00	; 0
 80e:	02 c0       	rjmp	.+4      	; 0x814 <__DATA_REGION_LENGTH__+0x14>
 810:	88 0f       	add	r24, r24
 812:	99 1f       	adc	r25, r25
 814:	6a 95       	dec	r22
 816:	e2 f7       	brpl	.-8      	; 0x810 <__DATA_REGION_LENGTH__+0x10>
 818:	80 95       	com	r24
 81a:	82 23       	and	r24, r18
 81c:	85 bb       	out	0x15, r24	; 21
 81e:	08 95       	ret
 820:	41 30       	cpi	r20, 0x01	; 1
 822:	59 f4       	brne	.+22     	; 0x83a <__DATA_REGION_LENGTH__+0x3a>
 824:	22 b3       	in	r18, 0x12	; 18
 826:	81 e0       	ldi	r24, 0x01	; 1
 828:	90 e0       	ldi	r25, 0x00	; 0
 82a:	02 c0       	rjmp	.+4      	; 0x830 <__DATA_REGION_LENGTH__+0x30>
 82c:	88 0f       	add	r24, r24
 82e:	99 1f       	adc	r25, r25
 830:	6a 95       	dec	r22
 832:	e2 f7       	brpl	.-8      	; 0x82c <__DATA_REGION_LENGTH__+0x2c>
 834:	82 2b       	or	r24, r18
 836:	82 bb       	out	0x12, r24	; 18
 838:	08 95       	ret
 83a:	22 b3       	in	r18, 0x12	; 18
 83c:	81 e0       	ldi	r24, 0x01	; 1
 83e:	90 e0       	ldi	r25, 0x00	; 0
 840:	02 c0       	rjmp	.+4      	; 0x846 <__DATA_REGION_LENGTH__+0x46>
 842:	88 0f       	add	r24, r24
 844:	99 1f       	adc	r25, r25
 846:	6a 95       	dec	r22
 848:	e2 f7       	brpl	.-8      	; 0x842 <__DATA_REGION_LENGTH__+0x42>
 84a:	80 95       	com	r24
 84c:	82 23       	and	r24, r18
 84e:	82 bb       	out	0x12, r24	; 18
 850:	08 95       	ret

00000852 <dio_readPin>:

dio_level_t dio_readPin(dio_portId_t portId, dio_pinId_t pinId)
{
	dio_level_t loc_ret = LOW;
	
	switch (portId)
 852:	81 30       	cpi	r24, 0x01	; 1
 854:	89 f0       	breq	.+34     	; 0x878 <__stack+0x19>
 856:	28 f0       	brcs	.+10     	; 0x862 <__stack+0x3>
 858:	82 30       	cpi	r24, 0x02	; 2
 85a:	c9 f0       	breq	.+50     	; 0x88e <__stack+0x2f>
 85c:	83 30       	cpi	r24, 0x03	; 3
 85e:	11 f1       	breq	.+68     	; 0x8a4 <__stack+0x45>
 860:	2c c0       	rjmp	.+88     	; 0x8ba <__stack+0x5b>
	{
		case DIO_PORTA:
		if (CHECK_BIT(DIO_PINA_REG,pinId) == 1)
 862:	89 b3       	in	r24, 0x19	; 25
 864:	90 e0       	ldi	r25, 0x00	; 0
 866:	02 c0       	rjmp	.+4      	; 0x86c <__stack+0xd>
 868:	95 95       	asr	r25
 86a:	87 95       	ror	r24
 86c:	6a 95       	dec	r22
 86e:	e2 f7       	brpl	.-8      	; 0x868 <__stack+0x9>
 870:	80 ff       	sbrs	r24, 0
 872:	25 c0       	rjmp	.+74     	; 0x8be <__stack+0x5f>
		{
			loc_ret = HIGH;
 874:	81 e0       	ldi	r24, 0x01	; 1
 876:	08 95       	ret
			loc_ret = LOW;
		}
		break;

		case DIO_PORTB:
		if (CHECK_BIT(DIO_PINB_REG,pinId) == 1)
 878:	86 b3       	in	r24, 0x16	; 22
 87a:	90 e0       	ldi	r25, 0x00	; 0
 87c:	02 c0       	rjmp	.+4      	; 0x882 <__stack+0x23>
 87e:	95 95       	asr	r25
 880:	87 95       	ror	r24
 882:	6a 95       	dec	r22
 884:	e2 f7       	brpl	.-8      	; 0x87e <__stack+0x1f>
 886:	80 ff       	sbrs	r24, 0
 888:	1c c0       	rjmp	.+56     	; 0x8c2 <__stack+0x63>
		{
			loc_ret = HIGH;
 88a:	81 e0       	ldi	r24, 0x01	; 1
 88c:	08 95       	ret
			loc_ret = LOW;
		}
		break;
		
		case DIO_PORTC:
		if (CHECK_BIT(DIO_PINC_REG,pinId) == 1)
 88e:	83 b3       	in	r24, 0x13	; 19
 890:	90 e0       	ldi	r25, 0x00	; 0
 892:	02 c0       	rjmp	.+4      	; 0x898 <__stack+0x39>
 894:	95 95       	asr	r25
 896:	87 95       	ror	r24
 898:	6a 95       	dec	r22
 89a:	e2 f7       	brpl	.-8      	; 0x894 <__stack+0x35>
 89c:	80 ff       	sbrs	r24, 0
 89e:	13 c0       	rjmp	.+38     	; 0x8c6 <__stack+0x67>
		{
			loc_ret = HIGH;
 8a0:	81 e0       	ldi	r24, 0x01	; 1
 8a2:	08 95       	ret
			loc_ret = LOW;
		}
		break;

		case DIO_PORTD:
		if (CHECK_BIT(DIO_PIND_REG,pinId) == 1)
 8a4:	80 b3       	in	r24, 0x10	; 16
 8a6:	90 e0       	ldi	r25, 0x00	; 0
 8a8:	02 c0       	rjmp	.+4      	; 0x8ae <__stack+0x4f>
 8aa:	95 95       	asr	r25
 8ac:	87 95       	ror	r24
 8ae:	6a 95       	dec	r22
 8b0:	e2 f7       	brpl	.-8      	; 0x8aa <__stack+0x4b>
 8b2:	80 ff       	sbrs	r24, 0
 8b4:	0a c0       	rjmp	.+20     	; 0x8ca <__stack+0x6b>
		{
			loc_ret = HIGH;
 8b6:	81 e0       	ldi	r24, 0x01	; 1
 8b8:	08 95       	ret
	}
}

dio_level_t dio_readPin(dio_portId_t portId, dio_pinId_t pinId)
{
	dio_level_t loc_ret = LOW;
 8ba:	80 e0       	ldi	r24, 0x00	; 0
 8bc:	08 95       	ret
		{
			loc_ret = HIGH;
		}
		else
		{
			loc_ret = LOW;
 8be:	80 e0       	ldi	r24, 0x00	; 0
 8c0:	08 95       	ret
		{
			loc_ret = HIGH;
		}
		else
		{
			loc_ret = LOW;
 8c2:	80 e0       	ldi	r24, 0x00	; 0
 8c4:	08 95       	ret
		{
			loc_ret = HIGH;
		}
		else
		{
			loc_ret = LOW;
 8c6:	80 e0       	ldi	r24, 0x00	; 0
 8c8:	08 95       	ret
		{
			loc_ret = HIGH;
		}
		else
		{
			loc_ret = LOW;
 8ca:	80 e0       	ldi	r24, 0x00	; 0
		}
		break;
	}
	
	return loc_ret;
}
 8cc:	08 95       	ret

000008ce <dio_setPortDirection>:

void dio_setPortDirection(dio_portId_t portId, dio_direction_t dir)
{
	switch (portId)
 8ce:	81 30       	cpi	r24, 0x01	; 1
 8d0:	69 f0       	breq	.+26     	; 0x8ec <dio_setPortDirection+0x1e>
 8d2:	28 f0       	brcs	.+10     	; 0x8de <dio_setPortDirection+0x10>
 8d4:	82 30       	cpi	r24, 0x02	; 2
 8d6:	89 f0       	breq	.+34     	; 0x8fa <dio_setPortDirection+0x2c>
 8d8:	83 30       	cpi	r24, 0x03	; 3
 8da:	b1 f0       	breq	.+44     	; 0x908 <dio_setPortDirection+0x3a>
 8dc:	08 95       	ret
	{
		case DIO_PORTA:
		if (dir == OUTPUT)
 8de:	61 11       	cpse	r22, r1
 8e0:	03 c0       	rjmp	.+6      	; 0x8e8 <dio_setPortDirection+0x1a>
		{
			DIO_DDRA_REG = 0xFF;
 8e2:	8f ef       	ldi	r24, 0xFF	; 255
 8e4:	8a bb       	out	0x1a, r24	; 26
 8e6:	08 95       	ret
		}
		else
		{
			DIO_DDRA_REG = 0x00;
 8e8:	1a ba       	out	0x1a, r1	; 26
 8ea:	08 95       	ret
		}
		break;
		
		case DIO_PORTB:
		if (dir == OUTPUT)
 8ec:	61 11       	cpse	r22, r1
 8ee:	03 c0       	rjmp	.+6      	; 0x8f6 <dio_setPortDirection+0x28>
		{
			DIO_DDRB_REG = 0xFF;
 8f0:	8f ef       	ldi	r24, 0xFF	; 255
 8f2:	87 bb       	out	0x17, r24	; 23
 8f4:	08 95       	ret
		}
		else
		{
			DIO_DDRB_REG = 0x00;
 8f6:	17 ba       	out	0x17, r1	; 23
 8f8:	08 95       	ret
		}
		break;
		
		case DIO_PORTC:
		if (dir == OUTPUT)
 8fa:	61 11       	cpse	r22, r1
 8fc:	03 c0       	rjmp	.+6      	; 0x904 <dio_setPortDirection+0x36>
		{
			DIO_DDRC_REG = 0xFF;
 8fe:	8f ef       	ldi	r24, 0xFF	; 255
 900:	84 bb       	out	0x14, r24	; 20
 902:	08 95       	ret
		}
		else
		{
			DIO_DDRC_REG = 0x00;
 904:	14 ba       	out	0x14, r1	; 20
 906:	08 95       	ret
		}
		break;
		
		case DIO_PORTD:
		if (dir == OUTPUT)
 908:	61 11       	cpse	r22, r1
 90a:	03 c0       	rjmp	.+6      	; 0x912 <dio_setPortDirection+0x44>
		{
			DIO_DDRD_REG = 0xFF;
 90c:	8f ef       	ldi	r24, 0xFF	; 255
 90e:	81 bb       	out	0x11, r24	; 17
 910:	08 95       	ret
		}
		else
		{
			DIO_DDRD_REG = 0x00;
 912:	11 ba       	out	0x11, r1	; 17
 914:	08 95       	ret

00000916 <dio_writePort>:
		break;
	}
}
void dio_writePort(dio_portId_t portId, u8 data)
{
	switch (portId)
 916:	81 30       	cpi	r24, 0x01	; 1
 918:	41 f0       	breq	.+16     	; 0x92a <dio_writePort+0x14>
 91a:	28 f0       	brcs	.+10     	; 0x926 <dio_writePort+0x10>
 91c:	82 30       	cpi	r24, 0x02	; 2
 91e:	39 f0       	breq	.+14     	; 0x92e <dio_writePort+0x18>
 920:	83 30       	cpi	r24, 0x03	; 3
 922:	39 f0       	breq	.+14     	; 0x932 <dio_writePort+0x1c>
 924:	08 95       	ret
	{
		case DIO_PORTA:
		DIO_PORTA_REG = data;
 926:	6b bb       	out	0x1b, r22	; 27
		break;
 928:	08 95       	ret
		
		case DIO_PORTB:
		DIO_PORTB_REG = data;
 92a:	68 bb       	out	0x18, r22	; 24
		break;
 92c:	08 95       	ret
		
		case DIO_PORTC:
		DIO_PORTC_REG = data;
 92e:	65 bb       	out	0x15, r22	; 21
		break;
 930:	08 95       	ret
		
		case DIO_PORTD:
		DIO_PORTD_REG = data;
 932:	62 bb       	out	0x12, r22	; 18
 934:	08 95       	ret

00000936 <eeprom_read>:
#include "bit_math.h"

u8 eeprom_read(u16 addr)
{
	/* Wait for completion of previous write */
	while (CHECK_BIT(EEPROM_EECR_REG, EEWE_BIT_NO) == 1)
 936:	e1 99       	sbic	0x1c, 1	; 28
 938:	fe cf       	rjmp	.-4      	; 0x936 <eeprom_read>
	{
		; /*	wait	*/
	}
	/* Set up address register */
	EEPROM_EEARL_REG = (u8)addr;
 93a:	8e bb       	out	0x1e, r24	; 30
	EEPROM_EEARH_REG = (u8)(addr>>8);
 93c:	9f bb       	out	0x1f, r25	; 31
	
	/* Start eeprom read by writing EERE */
	SET_BIT(EEPROM_EECR_REG,EERE_BIT_NO);
 93e:	8c b3       	in	r24, 0x1c	; 28
 940:	81 60       	ori	r24, 0x01	; 1
 942:	8c bb       	out	0x1c, r24	; 28

	/* Return data from data register */
	return EEPROM_EEDR_REG;
 944:	8d b3       	in	r24, 0x1d	; 29
}
 946:	08 95       	ret

00000948 <eeprom_write>:

void eeprom_write(u16 addr, u8 data)
{
	/* Wait for completion of previous write */
	while (CHECK_BIT(EEPROM_EECR_REG, EEWE_BIT_NO) == 1)
 948:	e1 99       	sbic	0x1c, 1	; 28
 94a:	fe cf       	rjmp	.-4      	; 0x948 <eeprom_write>
	{
		; /*	wait	*/
	}
	/* Set up address and data registers */
	//EEAR = addr;
	EEPROM_EEARL_REG = (u8)addr;
 94c:	8e bb       	out	0x1e, r24	; 30
	EEPROM_EEARH_REG = (u8)(addr>>8);
 94e:	9f bb       	out	0x1f, r25	; 31
	
	EEPROM_EEDR_REG = data;
 950:	6d bb       	out	0x1d, r22	; 29
	/* Write logical one to EEMWE */
	//EECR |= (1<<EEMWE);
	SET_BIT(EEPROM_EECR_REG,EEMWE_BIT_NO);
 952:	8c b3       	in	r24, 0x1c	; 28
 954:	84 60       	ori	r24, 0x04	; 4
 956:	8c bb       	out	0x1c, r24	; 28

	/* Start eeprom write by setting EEWE */
	//EECR |= (1<<EEWE);
	SET_BIT(EEPROM_EECR_REG,EEWE_BIT_NO);
 958:	8c b3       	in	r24, 0x1c	; 28
 95a:	82 60       	ori	r24, 0x02	; 2
 95c:	8c bb       	out	0x1c, r24	; 28
 95e:	08 95       	ret

00000960 <_exit>:
 960:	f8 94       	cli

00000962 <__stop_program>:
 962:	ff cf       	rjmp	.-2      	; 0x962 <__stop_program>
